; ModuleID = '5/65.c'
source_filename = "5/65.c"
target datalayout = "e-m:e-p270:32:32-p271:32:32-p272:64:64-i64:64-f80:128-n8:16:32:64-S128"
target triple = "x86_64-pc-linux-gnu"

@.str = private unnamed_addr constant [4 x i8] c"%lf\00", align 1
@.str.1 = private unnamed_addr constant [3 x i8] c"%s\00", align 1
@.str.2 = private unnamed_addr constant [6 x i8] c"error\00", align 1
@.str.3 = private unnamed_addr constant [4 x i8] c"yes\00", align 1
@.str.4 = private unnamed_addr constant [3 x i8] c"no\00", align 1

; Function Attrs: noinline nounwind uwtable
define dso_local i32 @main() #0 {
  %1 = alloca i32, align 4
  %2 = alloca double, align 8
  %3 = alloca i32, align 4
  %4 = alloca double, align 8
  %5 = alloca [2 x [500 x i8]], align 16
  %6 = alloca i32, align 4
  %7 = alloca i32, align 4
  %8 = alloca i32, align 4
  %9 = alloca i32, align 4
  store i32 0, i32* %1, align 4
  store i32 1, i32* %3, align 4
  store i32 0, i32* %7, align 4
  %10 = call i32 (i8*, ...) @__isoc99_scanf(i8* getelementptr inbounds ([4 x i8], [4 x i8]* @.str, i64 0, i64 0), double* %2)
  store i32 0, i32* %8, align 4
  br label %11

11:                                               ; preds = %20, %0
  %12 = load i32, i32* %8, align 4
  %13 = icmp slt i32 %12, 2
  br i1 %13, label %14, label %23

14:                                               ; preds = %11
  %15 = load i32, i32* %8, align 4
  %16 = sext i32 %15 to i64
  %17 = getelementptr inbounds [2 x [500 x i8]], [2 x [500 x i8]]* %5, i64 0, i64 %16
  %18 = getelementptr inbounds [500 x i8], [500 x i8]* %17, i64 0, i64 0
  %19 = call i32 (i8*, ...) @__isoc99_scanf(i8* getelementptr inbounds ([3 x i8], [3 x i8]* @.str.1, i64 0, i64 0), i8* %18)
  br label %20

20:                                               ; preds = %14
  %21 = load i32, i32* %8, align 4
  %22 = add nsw i32 %21, 1
  store i32 %22, i32* %8, align 4
  br label %11

23:                                               ; preds = %11
  %24 = getelementptr inbounds [2 x [500 x i8]], [2 x [500 x i8]]* %5, i64 0, i64 0
  %25 = getelementptr inbounds [500 x i8], [500 x i8]* %24, i64 0, i64 0
  %26 = call i64 @strlen(i8* %25) #3
  %27 = trunc i64 %26 to i32
  store i32 %27, i32* %6, align 4
  store i32 0, i32* %9, align 4
  br label %28

28:                                               ; preds = %83, %23
  %29 = load i32, i32* %9, align 4
  %30 = load i32, i32* %6, align 4
  %31 = icmp slt i32 %29, %30
  br i1 %31, label %32, label %86

32:                                               ; preds = %28
  %33 = getelementptr inbounds [2 x [500 x i8]], [2 x [500 x i8]]* %5, i64 0, i64 0
  %34 = load i32, i32* %9, align 4
  %35 = sext i32 %34 to i64
  %36 = getelementptr inbounds [500 x i8], [500 x i8]* %33, i64 0, i64 %35
  %37 = load i8, i8* %36, align 1
  %38 = sext i8 %37 to i32
  %39 = icmp ne i32 %38, 65
  br i1 %39, label %40, label %65

40:                                               ; preds = %32
  %41 = getelementptr inbounds [2 x [500 x i8]], [2 x [500 x i8]]* %5, i64 0, i64 0
  %42 = load i32, i32* %9, align 4
  %43 = sext i32 %42 to i64
  %44 = getelementptr inbounds [500 x i8], [500 x i8]* %41, i64 0, i64 %43
  %45 = load i8, i8* %44, align 1
  %46 = sext i8 %45 to i32
  %47 = icmp ne i32 %46, 71
  br i1 %47, label %48, label %65

48:                                               ; preds = %40
  %49 = getelementptr inbounds [2 x [500 x i8]], [2 x [500 x i8]]* %5, i64 0, i64 0
  %50 = load i32, i32* %9, align 4
  %51 = sext i32 %50 to i64
  %52 = getelementptr inbounds [500 x i8], [500 x i8]* %49, i64 0, i64 %51
  %53 = load i8, i8* %52, align 1
  %54 = sext i8 %53 to i32
  %55 = icmp ne i32 %54, 67
  br i1 %55, label %56, label %65

56:                                               ; preds = %48
  %57 = getelementptr inbounds [2 x [500 x i8]], [2 x [500 x i8]]* %5, i64 0, i64 0
  %58 = load i32, i32* %9, align 4
  %59 = sext i32 %58 to i64
  %60 = getelementptr inbounds [500 x i8], [500 x i8]* %57, i64 0, i64 %59
  %61 = load i8, i8* %60, align 1
  %62 = sext i8 %61 to i32
  %63 = icmp ne i32 %62, 84
  br i1 %63, label %64, label %65

64:                                               ; preds = %56
  store i32 0, i32* %3, align 4
  br label %86

65:                                               ; preds = %56, %48, %40, %32
  %66 = getelementptr inbounds [2 x [500 x i8]], [2 x [500 x i8]]* %5, i64 0, i64 0
  %67 = load i32, i32* %9, align 4
  %68 = sext i32 %67 to i64
  %69 = getelementptr inbounds [500 x i8], [500 x i8]* %66, i64 0, i64 %68
  %70 = load i8, i8* %69, align 1
  %71 = sext i8 %70 to i32
  %72 = getelementptr inbounds [2 x [500 x i8]], [2 x [500 x i8]]* %5, i64 0, i64 1
  %73 = load i32, i32* %9, align 4
  %74 = sext i32 %73 to i64
  %75 = getelementptr inbounds [500 x i8], [500 x i8]* %72, i64 0, i64 %74
  %76 = load i8, i8* %75, align 1
  %77 = sext i8 %76 to i32
  %78 = icmp eq i32 %71, %77
  br i1 %78, label %79, label %82

79:                                               ; preds = %65
  %80 = load i32, i32* %7, align 4
  %81 = add nsw i32 %80, 1
  store i32 %81, i32* %7, align 4
  br label %82

82:                                               ; preds = %79, %65
  br label %83

83:                                               ; preds = %82
  %84 = load i32, i32* %9, align 4
  %85 = add nsw i32 %84, 1
  store i32 %85, i32* %9, align 4
  br label %28

86:                                               ; preds = %64, %28
  %87 = load i32, i32* %7, align 4
  %88 = sitofp i32 %87 to double
  %89 = load i32, i32* %6, align 4
  %90 = sitofp i32 %89 to double
  %91 = fdiv double %88, %90
  store double %91, double* %4, align 8
  %92 = load i32, i32* %3, align 4
  %93 = icmp eq i32 %92, 0
  br i1 %93, label %94, label %96

94:                                               ; preds = %86
  %95 = call i32 (i8*, ...) @printf(i8* getelementptr inbounds ([6 x i8], [6 x i8]* @.str.2, i64 0, i64 0))
  br label %121

96:                                               ; preds = %86
  %97 = getelementptr inbounds [2 x [500 x i8]], [2 x [500 x i8]]* %5, i64 0, i64 0
  %98 = getelementptr inbounds [500 x i8], [500 x i8]* %97, i64 0, i64 0
  %99 = call i64 @strlen(i8* %98) #3
  %100 = getelementptr inbounds [2 x [500 x i8]], [2 x [500 x i8]]* %5, i64 0, i64 1
  %101 = getelementptr inbounds [500 x i8], [500 x i8]* %100, i64 0, i64 0
  %102 = call i64 @strlen(i8* %101) #3
  %103 = icmp ne i64 %99, %102
  br i1 %103, label %104, label %106

104:                                              ; preds = %96
  %105 = call i32 (i8*, ...) @printf(i8* getelementptr inbounds ([6 x i8], [6 x i8]* @.str.2, i64 0, i64 0))
  br label %120

106:                                              ; preds = %96
  %107 = load double, double* %4, align 8
  %108 = load double, double* %2, align 8
  %109 = fcmp ogt double %107, %108
  br i1 %109, label %110, label %112

110:                                              ; preds = %106
  %111 = call i32 (i8*, ...) @printf(i8* getelementptr inbounds ([4 x i8], [4 x i8]* @.str.3, i64 0, i64 0))
  br label %119

112:                                              ; preds = %106
  %113 = load double, double* %4, align 8
  %114 = load double, double* %2, align 8
  %115 = fcmp ole double %113, %114
  br i1 %115, label %116, label %118

116:                                              ; preds = %112
  %117 = call i32 (i8*, ...) @printf(i8* getelementptr inbounds ([3 x i8], [3 x i8]* @.str.4, i64 0, i64 0))
  br label %118

118:                                              ; preds = %116, %112
  br label %119

119:                                              ; preds = %118, %110
  br label %120

120:                                              ; preds = %119, %104
  br label %121

121:                                              ; preds = %120, %94
  ret i32 0
}

declare dso_local i32 @__isoc99_scanf(i8*, ...) #1

; Function Attrs: nounwind readonly
declare dso_local i64 @strlen(i8*) #2

declare dso_local i32 @printf(i8*, ...) #1


!llvm.module.flags = !{!0}
!llvm.ident = !{!1}

!0 = !{i32 1, !"wchar_size", i32 4}
!1 = !{!"clang version 10.0.0-4ubuntu1 "}
