; ModuleID = 'source-C-CXX/4/65.c'
source_filename = "source-C-CXX/4/65.c"
target datalayout = "e-m:e-p270:32:32-p271:32:32-p272:64:64-i64:64-f80:128-n8:16:32:64-S128"
target triple = "x86_64-pc-linux-gnu"

@.str = private unnamed_addr constant [4 x i8] c"%lf\00", align 1
@.str.1 = private unnamed_addr constant [3 x i8] c"%s\00", align 1
@.str.2 = private unnamed_addr constant [6 x i8] c"error\00", align 1
@.str.3 = private unnamed_addr constant [4 x i8] c"yes\00", align 1
@.str.4 = private unnamed_addr constant [3 x i8] c"no\00", align 1

; Function Attrs: nofree nounwind sspstrong uwtable
define dso_local i32 @main() local_unnamed_addr #0 {
  %1 = alloca double, align 8
  %2 = alloca [2 x [500 x i8]], align 16
  %3 = bitcast double* %1 to i8*
  call void @llvm.lifetime.start.p0i8(i64 8, i8* nonnull %3) #4
  %4 = getelementptr inbounds [2 x [500 x i8]], [2 x [500 x i8]]* %2, i64 0, i64 0, i64 0
  call void @llvm.lifetime.start.p0i8(i64 1000, i8* nonnull %4) #4
  %5 = call i32 (i8*, ...) @__isoc99_scanf(i8* getelementptr inbounds ([4 x i8], [4 x i8]* @.str, i64 0, i64 0), double* nonnull %1)
  %6 = call i32 (i8*, ...) @__isoc99_scanf(i8* getelementptr inbounds ([3 x i8], [3 x i8]* @.str.1, i64 0, i64 0), i8* nonnull %4)
  %7 = getelementptr inbounds [2 x [500 x i8]], [2 x [500 x i8]]* %2, i64 0, i64 1, i64 0
  %8 = call i32 (i8*, ...) @__isoc99_scanf(i8* getelementptr inbounds ([3 x i8], [3 x i8]* @.str.1, i64 0, i64 0), i8* nonnull %7)
  %9 = call i64 @strlen(i8* noundef nonnull %4) #5
  %10 = trunc i64 %9 to i32
  %11 = icmp sgt i32 %10, 0
  br i1 %11, label %12, label %29

12:                                               ; preds = %0
  %13 = and i64 %9, 4294967295
  br label %14

14:                                               ; preds = %12, %19
  %15 = phi i64 [ 0, %12 ], [ %25, %19 ]
  %16 = phi i32 [ 0, %12 ], [ %24, %19 ]
  %17 = getelementptr inbounds [2 x [500 x i8]], [2 x [500 x i8]]* %2, i64 0, i64 0, i64 %15
  %18 = load i8, i8* %17, align 1, !tbaa !5
  switch i8 %18, label %40 [
    i8 65, label %19
    i8 71, label %19
    i8 67, label %19
    i8 84, label %19
  ]

19:                                               ; preds = %14, %14, %14, %14
  %20 = getelementptr inbounds [2 x [500 x i8]], [2 x [500 x i8]]* %2, i64 0, i64 1, i64 %15
  %21 = load i8, i8* %20, align 1, !tbaa !5
  %22 = icmp eq i8 %18, %21
  %23 = zext i1 %22 to i32
  %24 = add nuw nsw i32 %16, %23
  %25 = add nuw nsw i64 %15, 1
  %26 = icmp eq i64 %25, %13
  br i1 %26, label %27, label %14, !llvm.loop !8

27:                                               ; preds = %19
  %28 = sitofp i32 %24 to double
  br label %29

29:                                               ; preds = %27, %0
  %30 = phi double [ 0.000000e+00, %0 ], [ %28, %27 ]
  %31 = sitofp i32 %10 to double
  %32 = fdiv double %30, %31
  %33 = call i64 @strlen(i8* noundef nonnull %7) #5
  %34 = icmp eq i64 %9, %33
  br i1 %34, label %35, label %40

35:                                               ; preds = %29
  %36 = load double, double* %1, align 8, !tbaa !10
  %37 = fcmp ogt double %32, %36
  br i1 %37, label %40, label %38

38:                                               ; preds = %35
  %39 = fcmp ugt double %32, %36
  br i1 %39, label %43, label %40

40:                                               ; preds = %14, %38, %35, %29
  %41 = phi i8* [ getelementptr inbounds ([6 x i8], [6 x i8]* @.str.2, i64 0, i64 0), %29 ], [ getelementptr inbounds ([4 x i8], [4 x i8]* @.str.3, i64 0, i64 0), %35 ], [ getelementptr inbounds ([3 x i8], [3 x i8]* @.str.4, i64 0, i64 0), %38 ], [ getelementptr inbounds ([6 x i8], [6 x i8]* @.str.2, i64 0, i64 0), %14 ]
  %42 = call i32 (i8*, ...) @printf(i8* nonnull dereferenceable(1) %41)
  br label %43

43:                                               ; preds = %40, %38
  call void @llvm.lifetime.end.p0i8(i64 1000, i8* nonnull %4) #4
  call void @llvm.lifetime.end.p0i8(i64 8, i8* nonnull %3) #4
  ret i32 0
}

; Function Attrs: argmemonly mustprogress nofree nosync nounwind willreturn
declare void @llvm.lifetime.start.p0i8(i64 immarg, i8* nocapture) #1

; Function Attrs: nofree nounwind
declare noundef i32 @__isoc99_scanf(i8* nocapture noundef readonly, ...) local_unnamed_addr #2

; Function Attrs: argmemonly mustprogress nofree nosync nounwind willreturn
declare void @llvm.lifetime.end.p0i8(i64 immarg, i8* nocapture) #1

; Function Attrs: argmemonly mustprogress nofree nounwind readonly willreturn
declare i64 @strlen(i8* nocapture) local_unnamed_addr #3

; Function Attrs: nofree nounwind
declare noundef i32 @printf(i8* nocapture noundef readonly, ...) local_unnamed_addr #2


!llvm.module.flags = !{!0, !1, !2, !3}
!llvm.ident = !{!4}

!0 = !{i32 1, !"wchar_size", i32 4}
!1 = !{i32 7, !"PIC Level", i32 2}
!2 = !{i32 7, !"PIE Level", i32 2}
!3 = !{i32 7, !"uwtable", i32 1}
!4 = !{!"clang version 13.0.0"}
!5 = !{!6, !6, i64 0}
!6 = !{!"omnipotent char", !7, i64 0}
!7 = !{!"Simple C/C++ TBAA"}
!8 = distinct !{!8, !9}
!9 = !{!"llvm.loop.mustprogress"}
!10 = !{!11, !11, i64 0}
!11 = !{!"double", !6, i64 0}
